(dp0
S'/sata/lawbox/dump/gov.us.courts.united_states_reports/1st/4/Commonwealth_v._Baynton,_4_US_282.html'
p1
(dp2
S'dates'
p3
(lp4
cdatetime
datetime
p5
(S'\x07\x0b\t\x01\x00\x00\x00\x00\x00\x00'
p6
tp7
Rp8
assS'/sata/lawbox/dump/gov.us.courts.united_states_reports/1st/4/Sharp_v._Pettit,_4_US_212.html'
p9
(dp10
g3
(lp11
g5
(S'\x07\x08\t\x01\x00\x00\x00\x00\x00\x00'
p12
tp13
Rp14
assS'/sata/lawbox/dump/gov.us.courts.united_states_reports/1st/4/Respublica_v._Bob,_4_US_145.html'
p15
(dp16
g3
(lp17
g5
(S'\x07\x03\t\x01\x00\x00\x00\x00\x00\x00'
p18
tp19
Rp20
assS'/sata/lawbox/dump/gov.us.courts.united_states_reports/1st/6/Wood_v._Wagnon,_6_US_9.html'
p21
(dp22
g3
(lp23
g5
(S'\x07\x0c\x02\t\x00\x00\x00\x00\x00\x00'
p24
tp25
Rp26
assS"/sata/lawbox/dump/gov.us.courts.united_states_reports/1st/4/Maxfield's_Lessee_v._Levy,_4_US_330.html"
p27
(dp28
g3
(lp29
g5
(S'\x07\x05\x04\x01\x00\x00\x00\x00\x00\x00'
p30
tp31
Rp32
assS'/sata/lawbox/dump/gov.us.courts.united_states_reports/1st/5/Abercrombie_v._Dupuis,_5_US_343.html'
p33
(dp34
g3
(lp35
g5
(S'\x07\x0b\x02\x1c\x00\x00\x00\x00\x00\x00'
p36
tp37
Rp38
assS'/sata/lawbox/dump/gov.us.courts.united_states_reports/1st/4/Conframp_v._Bunel,_4_US_419.html'
p39
(dp40
S'dates'
p41
(lp42
g5
(S'\x07\x0e\x04\x01\x00\x00\x00\x00\x00\x00'
p43
tp44
Rp45
assS'/sata/lawbox/dump/gov.us.courts.united_states_reports/1st/4/Russel_v._Union_Insurance_Company,_4_US_421.html'
p46
(dp47
g3
(lp48
g5
(S'\x07\x0e\x04\x01\x00\x00\x00\x00\x00\x00'
p49
tp50
Rp51
assS"/sata/lawbox/dump/gov.us.courts.united_states_reports/1st/4/Water's_Executors_v._McLellan,_4_US_208.html"
p52
(dp53
g3
(lp54
g5
(S'\x07\x08\x03\x01\x00\x00\x00\x00\x00\x00'
p55
tp56
Rp57
assS'/sata/lawbox/dump/gov.us.courts.united_states_reports/1st/4/Levy_v._Bank_of_United_States,_4_US_234.html'
p58
(dp59
g41
(lp60
g5
(S'\x07\n\x03\x01\x00\x00\x00\x00\x00\x00'
p61
tp62
Rp63
assS'/sata/lawbox/dump/gov.us.courts.united_states_reports/1st/4/Donaldson_v._Means,_4_US_109.html'
p64
(dp65
g3
(lp66
g5
(S'\x06\xff\x03\x01\x00\x00\x00\x00\x00\x00'
p67
tp68
Rp69
assS'/sata/lawbox/dump/gov.us.courts.united_states_reports/1st/72/German_v._United_States,_72_US_825.html'
p70
(dp71
g3
(lp72
g5
(S'\x07K\x01\x1c\x00\x00\x00\x00\x00\x00'
p73
tp74
Rp75
assS'/sata/lawbox/dump/gov.us.courts.united_states_reports/1st/4/Williamson_v._Kincaid,_4_US_20.html'
p76
(dp77
g3
(lp78
g5
(S'\x07\x08\x02\x01\x00\x00\x00\x00\x00\x00'
p79
tp80
Rp81
assS'/sata/lawbox/dump/gov.us.courts.united_states_reports/1st/4/Stansbury_v._Marks,_4_US_130.html'
p82
(dp83
g3
(lp84
g5
(S'\x07\x01\x04\x01\x00\x00\x00\x00\x00\x00'
p85
tp86
Rp87
assS'/sata/lawbox/dump/gov.us.courts.united_states_reports/1st/4/Donath_v._THE_INSURANCE_COMPANY_OF_NORTH_AMERICA,_4_US_463.html'
p88
(dp89
g3
(lp90
g5
(S'\x07\x0e\x0c\x01\x00\x00\x00\x00\x00\x00'
p91
tp92
Rp93
assS'/sata/lawbox/dump/gov.us.courts.united_states_reports/1st/4/Bell_v._Andrews,_4_US_152.html'
p94
(dp95
g41
(lp96
g5
(S'\x07\x04\x03\x01\x00\x00\x00\x00\x00\x00'
p97
tp98
Rp99
assS'/sata/lawbox/dump/gov.us.courts.united_states_reports/1st/4/Turner_v._Enrille,_4_US_7.html'
p100
(dp101
g3
(lp102
g5
(S'\x07\x07\x08\t\x00\x00\x00\x00\x00\x00'
p103
tp104
Rp105
assS'/sata/lawbox/dump/gov.us.courts.united_states_reports/1st/162/OREGON_SHORT_LINE_AND_UTAH_NORTHERN_RY._CO._v._Mullan,_162_US_498.html'
p106
(dp107
g3
(lp108
g5
(S'\x07h\x04\x14\x00\x00\x00\x00\x00\x00'
p109
tp110
Rp111
assS'/sata/lawbox/dump/gov.us.courts.united_states_reports/1st/4/THE_BANK_OF_NORTH-AMERICA_v._Pettit,_4_US_127.html'
p112
(dp113
g3
(lp114
g5
(S'\x07\x01\x04\x01\x00\x00\x00\x00\x00\x00'
p115
tp116
Rp117
assS'/sata/lawbox/dump/gov.us.courts.united_states_reports/1st/4/Crousillat_v._Ball,_4_US_294.html'
p118
(dp119
g3
(lp120
g5
(S'\x07\x0b\x0c\x01\x00\x00\x00\x00\x00\x00'
p121
tp122
Rp123
assS'/sata/lawbox/dump/gov.us.courts.united_states_reports/1st/4/Kingston_v._Girard,_4_US_274.html'
p124
(dp125
g3
(lp126
g5
(S'\x07\x0b\x03\x01\x00\x00\x00\x00\x00\x00'
p127
tp128
Rp129
assS'/sata/lawbox/dump/gov.us.courts.united_states_reports/1st/6/Williams_v._Lyles,_6_US_9.html'
p130
(dp131
g3
(lp132
g5
(S'\x07\x0c\x02\t\x00\x00\x00\x00\x00\x00'
p133
tp134
Rp135
assS'/sata/lawbox/dump/gov.us.courts.united_states_reports/1st/40/United_States_v._Delespine,_40_US_319.html'
p136
(dp137
g41
(lp138
g5
(S'\x071\x03\x02\x00\x00\x00\x00\x00\x00'
p139
tp140
Rp141
assS'/sata/lawbox/dump/gov.us.courts.united_states_reports/1st/4/Guppy_v._Brown,_4_US_410.html'
p142
(dp143
g3
(lp144
g5
(S'\x07\r\n\x01\x00\x00\x00\x00\x00\x00'
p145
tp146
Rp147
assS'/sata/lawbox/dump/gov.us.courts.united_states_reports/1st/6/United_States_v._Schooner_Sally,_6_US_406.html'
p148
(dp149
g3
(lp150
g5
(S'\x07\r\x02\x19\x00\x00\x00\x00\x00\x00'
p151
tp152
Rp153
assS'/sata/lawbox/dump/gov.us.courts.united_states_reports/1st/5/Wilson_v._Mason,_5_US_44.html'
p154
(dp155
g3
(lp156
g5
(S'\x07\t\x0c\x0f\x00\x00\x00\x00\x00\x00'
p157
tp158
Rp159
assS'/sata/lawbox/dump/gov.us.courts.united_states_reports/1st/4/Conrad_v._Conrad,_4_US_130.html'
p160
(dp161
g3
(lp162
g5
(S'\x07\x01\x04\x01\x00\x00\x00\x00\x00\x00'
p163
tp164
Rp165
assS"/sata/lawbox/dump/gov.us.courts.united_states_reports/1st/4/Moliere's_Lessee_v._Noe,_4_US_450.html"
p166
(dp167
g3
(lp168
g5
(S'\x07\x0e\x0c\x01\x00\x00\x00\x00\x00\x00'
p169
tp170
Rp171
assS'/sata/lawbox/dump/gov.us.courts.united_states_reports/1st/25/Harcourt_v._Gaillard,_25_US_523.html'
p172
(dp173
g3
(lp174
g5
(S'\x07#\x03\x03\x00\x00\x00\x00\x00\x00'
p175
tp176
Rp177
assS'/sata/lawbox/dump/gov.us.courts.united_states_reports/1st/4/Morgan_v._The_Insurance_Company_of_North_America,_4_US_455.html'
p178
(dp179
g3
(lp180
g5
(S'\x07\x0e\x0c\x01\x00\x00\x00\x00\x00\x00'
p181
tp182
Rp183
assS'/sata/lawbox/dump/gov.us.courts.united_states_reports/1st/97/Young_v._United_States,_97_US_39.html'
p184
(dp185
g3
(lp186
g5
(S'\x07V\x05\r\x00\x00\x00\x00\x00\x00'
p187
tp188
Rp189
assS'/sata/lawbox/dump/gov.us.courts.united_states_reports/1st/76/Public_Schools_v._Walker,_76_US_603.html'
p190
(dp191
g41
(lp192
g5
(S'\x07N\x03\x07\x00\x00\x00\x00\x00\x00'
p193
tp194
Rp195
assS'/sata/lawbox/dump/gov.us.courts.united_states_reports/1st/4/United_States_v._Cooper,_4_US_341.html'
p196
(dp197
g3
(lp198
g5
(S'\x07\x08\x04\x01\x00\x00\x00\x00\x00\x00'
p199
tp200
Rp201
assS'/sata/lawbox/dump/gov.us.courts.united_states_reports/1st/4/Snell_v._DELAWARE_INSURANCE_COMPANY,_4_US_430.html'
p202
(dp203
g3
(lp204
g5
(S'\x07\x0e\n\x01\x00\x00\x00\x00\x00\x00'
p205
tp206
Rp207
assS'/sata/lawbox/dump/gov.us.courts.united_states_reports/1st/4/Little_v._DAWSON_ET_AL.,_4_US_111.html'
p208
(dp209
g41
(lp210
g5
(S'\x06\xff\t\x01\x00\x00\x00\x00\x00\x00'
p211
tp212
Rp213
assS'/sata/lawbox/dump/gov.us.courts.united_states_reports/1st/72/EX_PARTE_THE_MILWAUKEE_RAILROAD_COMPANY,_72_US_825.html'
p214
(dp215
g3
(lp216
g5
(S'\x07K\x05\r\x00\x00\x00\x00\x00\x00'
p217
tp218
Rp219
assS'/sata/lawbox/dump/gov.us.courts.united_states_reports/1st/5/Wood_v._Owings,_5_US_239.html'
p220
(dp221
g3
(lp222
g5
(S'\x07\x0b\x03\x01\x00\x00\x00\x00\x00\x00'
p223
tp224
Rp225
assS'/sata/lawbox/dump/gov.us.courts.united_states_reports/1st/4/Knox_v._Greenleaf,_4_US_360.html'
p226
(dp227
g3
(lp228
g5
(S'\x07\n\x05\x01\x00\x00\x00\x00\x00\x00'
p229
tp230
Rp231
assS'/sata/lawbox/dump/gov.us.courts.united_states_reports/1st/4/Commonwealth_v._Dillon,_4_US_116.html'
p232
(dp233
g3
(lp234
g5
(S'\x07\x00\x01\x01\x00\x00\x00\x00\x00\x00'
p235
tp236
Rp237
assS'/sata/lawbox/dump/gov.us.courts.united_states_reports/1st/4/Ozeas_v._Johnson,_4_US_434.html'
p238
(dp239
g3
(lp240
g5
(S'\x07\x0e\x0c\x01\x00\x00\x00\x00\x00\x00'
p241
tp242
Rp243
assS'/sata/lawbox/dump/gov.us.courts.united_states_reports/1st/4/Dutilh_v._Gatliff,_4_US_446.html'
p244
(dp245
g3
(lp246
g5
(S'\x07\x0e\x0c\x01\x00\x00\x00\x00\x00\x00'
p247
tp248
Rp249
assS'/sata/lawbox/dump/gov.us.courts.united_states_reports/1st/4/Mitchell_v._Smith,_4_US_269.html'
p250
(dp251
g3
(lp252
g5
(S'\x07\x0b\x03\x01\x00\x00\x00\x00\x00\x00'
p253
tp254
Rp255
assS'/sata/lawbox/dump/gov.us.courts.united_states_reports/1st/5/Turner_v._Fendall,_5_US_117.html'
p256
(dp257
g3
(lp258
g5
(S'\x07\t\x0c\x15\x00\x00\x00\x00\x00\x00'
p259
tp260
Rp261
assS'/sata/lawbox/dump/gov.us.courts.united_states_reports/1st/4/Talbot_v._Ship_Amelia,_4_US_34.html'
p262
(dp263
g3
(lp264
g5
(S'\x07\x08\x08\x01\x00\x00\x00\x00\x00\x00'
p265
tp266
Rp267
assS'/sata/lawbox/dump/gov.us.courts.united_states_reports/1st/4/Symonds_v._The_Union_Insurance_Company,_4_US_417.html'
p268
(dp269
g41
(lp270
g5
(S'\x07\x0e\x04\x01\x00\x00\x00\x00\x00\x00'
p271
tp272
Rp273
assS'/sata/lawbox/dump/gov.us.courts.united_states_reports/1st/4/Bas_v._Tingy,_4_US_37.html'
p274
(dp275
g3
(lp276
g5
(S'\x07\x08\x08\x0f\x00\x00\x00\x00\x00\x00'
p277
tp278
Rp279
assS'/sata/lawbox/dump/gov.us.courts.united_states_reports/1st/4/Dupont_v._Pichon,_4_US_321.html'
p280
(dp281
g3
(lp282
g5
(S'\x07\r\x03\x01\x00\x00\x00\x00\x00\x00'
p283
tp284
Rp285
assS'/sata/lawbox/dump/gov.us.courts.united_states_reports/1st/4/Commonwealth_v._Franklin,_4_US_255.html'
p286
(dp287
g3
(lp288
g5
(S'\x07\n\x0c\x01\x00\x00\x00\x00\x00\x00'
p289
tp290
Rp291
assS'/sata/lawbox/dump/gov.us.courts.united_states_reports/1st/128/United_States_ex_rel._Dunlap_v._Black,_128_US_40.html'
p292
(dp293
g3
(lp294
g5
(S'\x07`\n\x16\x00\x00\x00\x00\x00\x00'
p295
tp296
Rp297
assS'/sata/lawbox/dump/gov.us.courts.united_states_reports/1st/4/Commonwealth_v._Gibbs,_4_US_253.html'
p298
(dp299
g3
(lp300
g5
(S'\x07\n\x0c\x01\x00\x00\x00\x00\x00\x00'
p301
tp302
Rp303
assS'/sata/lawbox/dump/gov.us.courts.united_states_reports/1st/4/Evans_v._Bollen,_4_US_342.html'
p304
(dp305
g41
(lp306
g5
(S'\x07\x08\x04\x01\x00\x00\x00\x00\x00\x00'
p307
tp308
Rp309
assS'/sata/lawbox/dump/gov.us.courts.united_states_reports/1st/4/Lessee_v._Dunning,_4_US_120.html'
p310
(dp311
g3
(lp312
g5
(S'\x07\x00\x04\x01\x00\x00\x00\x00\x00\x00'
p313
tp314
Rp315
assS'/sata/lawbox/dump/gov.us.courts.united_states_reports/1st/4/Thurston_v._Koch,_4_US_348.html'
p316
(dp317
g3
(lp318
g5
(S'\x07\x08\n\x01\x00\x00\x00\x00\x00\x00'
p319
tp320
Rp321
assS'/sata/lawbox/dump/gov.us.courts.united_states_reports/1st/4/JONES_ET_AL._v._Insurance_Company_of_North_America,_4_US_246.html'
p322
(dp323
g3
(lp324
g5
(S'\x07\n\x0c\x01\x00\x00\x00\x00\x00\x00'
p325
tp326
Rp327
assS'/sata/lawbox/dump/gov.us.courts.united_states_reports/1st/6/Bailiff_v._Tipping,_6_US_406.html'
p328
(dp329
g3
(lp330
g5
(S'\x07\r\x02\x19\x00\x00\x00\x00\x00\x00'
p331
tp332
Rp333
assS'/sata/lawbox/dump/gov.us.courts.united_states_reports/1st/4/Duncanson_v._MLURE,_4_US_308.html'
p334
(dp335
g41
(lp336
g5
(S'\x07\x0c\t\x01\x00\x00\x00\x00\x00\x00'
p337
tp338
Rp339
assS'/sata/lawbox/dump/gov.us.courts.united_states_reports/1st/4/Commonwealth_v._Dallas,_4_US_229.html'
p340
(dp341
g3
(lp342
g5
(S'\x07\t\t\x01\x00\x00\x00\x00\x00\x00'
p343
tp344
Rp345
assS"/sata/lawbox/dump/gov.us.courts.united_states_reports/1st/4/Boyd's_Lessee_v._Cowan,_4_US_138.html"
p346
(dp347
g3
(lp348
g5
(S'\x07\x02\x04\x01\x00\x00\x00\x00\x00\x00'
p349
tp350
Rp351
assS'/sata/lawbox/dump/gov.us.courts.united_states_reports/1st/4/Graham_v._Bickham,_4_US_149.html'
p352
(dp353
g3
(lp354
g5
(S'\x07\x04\x0c\x01\x00\x00\x00\x00\x00\x00'
p355
tp356
Rp357
assS'/sata/lawbox/dump/gov.us.courts.united_states_reports/1st/4/Eddowes_v._Niell,_4_US_133.html'
p358
(dp359
g3
(lp360
g5
(S'\x07\x01\x04\x01\x00\x00\x00\x00\x00\x00'
p361
tp362
Rp363
assS'/sata/lawbox/dump/gov.us.courts.united_states_reports/1st/4/Bender_v._Fromberger,_4_US_436.html'
p364
(dp365
g3
(lp366
g5
(S'\x07\x0e\x0c\x01\x00\x00\x00\x00\x00\x00'
p367
tp368
Rp369
assS'/sata/lawbox/dump/gov.us.courts.united_states_reports/1st/75/Clark_v._Reyburn,_75_US_318.html'
p370
(dp371
g41
(lp372
g5
(S'\x07M\x0b\x01\x00\x00\x00\x00\x00\x00'
p373
tp374
Rp375
assS'/sata/lawbox/dump/gov.us.courts.united_states_reports/1st/170/Drake_v._Kochersperger,_170_US_303.html'
p376
(dp377
g41
(lp378
g5
(S'\x07i\n\x01\x00\x00\x00\x00\x00\x00'
p379
tp380
Rp381
assS'/sata/lawbox/dump/gov.us.courts.united_states_reports/1st/4/Smythe_v._Banks,_4_US_329.html'
p382
(dp383
g3
(lp384
g5
(S'\x07\x05\x04\x01\x00\x00\x00\x00\x00\x00'
p385
tp386
Rp387
assS'/sata/lawbox/dump/gov.us.courts.united_states_reports/1st/27/Bank_of_Columbia_v._Sweeney,_27_US_671.html'
p388
(dp389
g3
(lp390
g5
(S'\x07%\x05\x13\x00\x00\x00\x00\x00\x00'
p391
tp392
Rp393
assS'/sata/lawbox/dump/gov.us.courts.united_states_reports/1st/4/Bussy_v._Donaldson,_4_US_206.html'
p394
(dp395
g3
(lp396
g5
(S'\x07\x08\x03\x01\x00\x00\x00\x00\x00\x00'
p397
tp398
Rp399
assS'/sata/lawbox/dump/gov.us.courts.united_states_reports/1st/4/Sansom_v._Ball,_4_US_459.html'
p400
(dp401
g3
(lp402
g5
(S'\x07\x0e\x0c\x01\x00\x00\x00\x00\x00\x00'
p403
tp404
Rp405
assS'/sata/lawbox/dump/gov.us.courts.united_states_reports/1st/76/United_States_v._Adams,_76_US_661.html'
p406
(dp407
g41
(lp408
g5
(S'\x07N\x04\x1e\x00\x00\x00\x00\x00\x00'
p409
tp410
Rp411
assS'/sata/lawbox/dump/gov.us.courts.united_states_reports/1st/4/Bell_v._Beveridge,_4_US_272.html'
p412
(dp413
g41
(lp414
g5
(S'\x07\x0b\x03\x01\x00\x00\x00\x00\x00\x00'
p415
tp416
Rp417
assS'/sata/lawbox/dump/gov.us.courts.united_states_reports/1st/5/Lindo_v._Gardner,_5_US_343.html'
p418
(dp419
g3
(lp420
g5
(S'\x07\x0b\x02\x1c\x00\x00\x00\x00\x00\x00'
p421
tp422
Rp423
assS'/sata/lawbox/dump/gov.us.courts.united_states_reports/1st/4/Blair_v._Miller,_4_US_21.html'
p424
(dp425
g3
(lp426
g5
(S'\x07\x08\x02\x01\x00\x00\x00\x00\x00\x00'
p427
tp428
Rp429
assS"/sata/lawbox/dump/gov.us.courts.united_states_reports/1st/4/Humphries_v._Blight's_Assignees,_4_US_370.html"
p430
(dp431
g3
(lp432
g5
(S'\x07\x0b\x04\x01\x00\x00\x00\x00\x00\x00'
p433
tp434
Rp435
assS'/sata/lawbox/dump/gov.us.courts.united_states_reports/1st/76/Rubber_Co._v._Goodyear,_76_US_807.html'
p436
(dp437
g41
(lp438
g5
(S'\x07N\x02\x07\x00\x00\x00\x00\x00\x00'
p439
tp440
Rp441
ass.