(dp0
S'/sata/lawbox/dump/gov.us.courts.united_states_reports/1st/16/Lenox_v._Prout,_16_US_520.html'
p1
(dp2
S'dates'
p3
(lp4
cdatetime
datetime
p5
(S'\x07\x1a\x03\t\x00\x00\x00\x00\x00\x00'
p6
tp7
Rp8
assS'/sata/lawbox/dump/gov.us.courts.united_states_reports/1st/4/Commonwealth_v._Gibbs,_4_US_253.html'
p9
(dp10
g3
(lp11
g5
(S'\x07\n\x0c\x01\x00\x00\x00\x00\x00\x00'
p12
tp13
Rp14
assS'/sata/lawbox/dump/gov.us.courts.united_states_reports/1st/35/Dickins_v._Beal,_35_US_572.html'
p15
(dp16
g3
(lp17
g5
(S'\x07,\x02\x1a\x00\x00\x00\x00\x00\x00'
p18
tp19
Rp20
assS'/sata/lawbox/dump/gov.us.courts.united_states_reports/1st/2/Chester_v._Experiment,_2_US_41.html'
p21
(dp22
g3
(lp23
g5
(S'\x06\xf6\x01\x01\x00\x00\x00\x00\x00\x00'
p24
tp25
Rp26
assS'/sata/lawbox/dump/unsorted/31/State_v._Ortiz,_40_A._3d_785.html'
p27
(dp28
S'court'
p29
S''
p30
ssS'/sata/lawbox/dump/gov.us.courts.united_states_reports/1st/2/Nichols_v._Postlethwaite,_2_US_131.html'
p31
(dp32
g3
(lp33
g5
(S'\x06\xff\t\x01\x00\x00\x00\x00\x00\x00'
p34
tp35
Rp36
assS'/sata/lawbox/dump/gov.us.courts.united_states_reports/1st/2/Respublica_v._Griffiths,_2_US_112.html'
p37
(dp38
g3
(lp39
g5
(S'\x06\xfe\x06\x01\x00\x00\x00\x00\x00\x00'
p40
tp41
Rp42
assS'/sata/lawbox/dump/gov.us.courts.united_states_reports/1st/16/THE_DIANA,_16_US_27.html'
p43
(dp44
g3
(lp45
g5
(S'\x07\x1a\x02\n\x00\x00\x00\x00\x00\x00'
p46
tp47
Rp48
assS'/sata/lawbox/dump/gov.us.courts.united_states_reports/1st/16/THE_NEW_YORK,_16_US_27.html'
p49
(dp50
g3
(lp51
g5
(S'\x07\x1a\x02\n\x00\x00\x00\x00\x00\x00'
p52
tp53
Rp54
assS'/sata/lawbox/dump/gov.us.courts.united_states_reports/1st/18/Mandeville_v._Welch,_18_US_277.html'
p55
(dp56
g3
(lp57
g5
(S'\x07\x1c\x03\x07\x00\x00\x00\x00\x00\x00'
p58
tp59
Rp60
assS'/sata/lawbox/dump/gov.us.courts.united_states_reports/1st/35/Macomb_v._Armstead,_35_US_407.html'
p61
(dp62
g3
(lp63
g5
(S'\x07,\x02\x17\x00\x00\x00\x00\x00\x00'
p64
tp65
Rp66
assS'/sata/lawbox/dump/gov.us.courts.united_states_reports/1st/4/JONES_ET_AL._v._Insurance_Company_of_North_America,_4_US_246.html'
p67
(dp68
g3
(lp69
g5
(S'\x07\n\x0c\x01\x00\x00\x00\x00\x00\x00'
p70
tp71
Rp72
assS'/sata/lawbox/dump/com.west.federal_supplement/2d/262/El-Hakem_v._BJY_INC.,_262_F._Supp._2d_1139.html'
p73
(dp74
S'court'
p75
S'ord'
p76
ssS'/sata/lawbox/dump/gov.ca.courts.california_appellate_reports/4th/64/City_of_Richmond_v._COM._ON_STATE_MANDATES,_75_Cal._Rptr._2d_754.html'
p77
(dp78
S'court'
p79
S'calctapp'
p80
ssS"/sata/lawbox/dump/gov.us.courts.united_states_reports/1st/46/Creath's_Administrator_v._Sims,_46_US_192.html"
p81
(dp82
g3
(lp83
g5
(S'\x077\x02\x10\x00\x00\x00\x00\x00\x00'
p84
tp85
Rp86
assS"/sata/lawbox/dump/gov.ca.courts.california_appellate_reports/4th/104/DENNY'S_INC._v._WORKERS'COMP._APPEALS_BD.,_129_Cal._Rptr._2d_53.html"
p87
(dp88
S'court'
p89
S'calctapp'
p90
ssS'/sata/lawbox/dump/gov.us.courts.united_states_reports/1st/2/Keane_v._Brig_Gloucester,_2_US_36.html'
p91
(dp92
g3
(lp93
g5
(S'\x06\xf6\x01\x01\x00\x00\x00\x00\x00\x00'
p94
tp95
Rp96
assS'/sata/lawbox/dump/gov.us.courts.united_states_reports/1st/4/Conrad_v._Conrad,_4_US_130.html'
p97
(dp98
g3
(lp99
g5
(S'\x07\x01\x04\x01\x00\x00\x00\x00\x00\x00'
p100
tp101
Rp102
assS'/sata/lawbox/dump/gov.us.courts.united_states_reports/1st/4/Duncanson_v._MLURE,_4_US_308.html'
p103
(dp104
g3
(lp105
g5
(S'\x07\x0c\t\x01\x00\x00\x00\x00\x00\x00'
p106
tp107
Rp108
assS'/sata/lawbox/dump/gov.us.courts.united_states_reports/1st/16/THE_FRIENDSCHAFT,_16_US_7.html'
p109
(dp110
g3
(lp111
g5
(S'\x07\x1a\x02\x06\x00\x00\x00\x00\x00\x00'
p112
tp113
Rp114
assS'/sata/lawbox/dump/gov.us.courts.united_states_reports/1st/4/United_States_v._Cooper,_4_US_341.html'
p115
(dp116
g3
(lp117
g5
(S'\x07\x08\x04\x01\x00\x00\x00\x00\x00\x00'
p118
tp119
Rp120
assS'/sata/lawbox/dump/gov.us.courts.united_states_reports/1st/17/Dartmouth_College_v._Woodward,_17_US_250.html'
p121
(dp122
g3
(lp123
g5
(S'\x07\x1b\x02\x19\x00\x00\x00\x00\x00\x00'
p124
tp125
Rp126
assS'/sata/lawbox/dump/gov.us.courts.united_states_reports/1st/18/Conn_v._Penn,_18_US_424.html'
p127
(dp128
g3
(lp129
g5
(S'\x07\x1c\x03\x10\x00\x00\x00\x00\x00\x00'
p130
tp131
Rp132
assS'/sata/lawbox/dump/gov.us.courts.united_states_reports/1st/35/Voorhees_v._THE_BANK_OF_THE_UNITED_STATES.,_35_US_353.html'
p133
(dp134
g3
(lp135
g5
(S'\x07,\x02\x0f\x00\x00\x00\x00\x00\x00'
p136
tp137
Rp138
assS'/sata/lawbox/dump/gov.us.courts.united_states_reports/1st/2/Ketland_v._Cassius,_2_US_365.html'
p139
(dp140
g3
(lp141
g5
(S'\x07\x04\n\x01\x00\x00\x00\x00\x00\x00'
p142
tp143
Rp144
assS'/sata/lawbox/dump/gov.us.courts.united_states_reports/1st/2/Powell_v._Biddle,_2_US_70.html'
p145
(dp146
g3
(lp147
g5
(S'\x06\xfe\x08\x01\x00\x00\x00\x00\x00\x00'
p148
tp149
Rp150
assS'/sata/lawbox/dump/gov.us.courts.united_states_reports/1st/18/THE_JOSEFA_SEGUNDA,_18_US_156.html'
p151
(dp152
g3
(lp153
g5
(S'\x07\x1c\x03\r\x00\x00\x00\x00\x00\x00'
p154
tp155
Rp156
assS'/sata/lawbox/dump/gov.us.courts.united_states_reports/1st/4/Donaldson_v._Means,_4_US_109.html'
p157
(dp158
g3
(lp159
g5
(S'\x06\xfe\x04\x01\x00\x00\x00\x00\x00\x00'
p160
tp161
Rp162
assS"/sata/lawbox/dump/gov.us.courts.united_states_reports/1st/2/BARNES'S_v._Irwin,_2_US_199.html"
p163
(dp164
g3
(lp165
g5
(S'\x07\x01\x01\x01\x00\x00\x00\x00\x00\x00'
p166
tp167
Rp168
assS'/sata/lawbox/dump/gov.us.courts.united_states_reports/1st/16/McIver_v._Kyger,_16_US_53.html'
p169
(dp170
g3
(lp171
g5
(S'\x07\x1a\x02\n\x00\x00\x00\x00\x00\x00'
p172
tp173
Rp174
assS'/sata/lawbox/dump/com.west.bankruptcy_reporter/1st/36/MATTER_OF_CHICAGO,_MADISON_&_NORTHERN_RY._CO.,_36_BR_292.html'
p175
(dp176
S'court'
p177
S'wiwb'
p178
ssS'/sata/lawbox/dump/gov.us.courts.united_states_reports/1st/16/United_States_v._150_Crates_of_Earthen-Ware,_16_US_232.html'
p179
(dp180
g3
(lp181
g5
(S'\x07\x1a\x02\x18\x00\x00\x00\x00\x00\x00'
p182
tp183
Rp184
assS'/sata/lawbox/dump/gov.us.courts.united_states_reports/1st/35/Lee_v._Dick,_35_US_482.html'
p185
(dp186
g3
(lp187
g5
(S'\x07,\x02\x1a\x00\x00\x00\x00\x00\x00'
p188
tp189
Rp190
assS'/sata/lawbox/dump/gov.us.courts.united_states_reports/1st/2/United_States_v._Stewart,_2_US_343.html'
p191
(dp192
g3
(lp193
g5
(S'\x07\x03\x04\x01\x00\x00\x00\x00\x00\x00'
p194
tp195
Rp196
assS'/sata/lawbox/dump/gov.us.courts.united_states_reports/1st/17/United_States_v._Howland,_17_US_108.html'
p197
(dp198
g3
(lp199
g5
(S'\x07\x1b\x02\x11\x00\x00\x00\x00\x00\x00'
p200
tp201
Rp202
assS'/sata/lawbox/dump/gov.us.courts.united_states_reports/1st/16/Cameron_v._McRoberts,_16_US_591.html'
p203
(dp204
g3
(lp205
g5
(S'\x07\x1a\x03\x0b\x00\x00\x00\x00\x00\x00'
p206
tp207
Rp208
assS'/sata/lawbox/dump/gov.us.courts.united_states_reports/1st/18/United_States_v._Furlong,_18_US_184.html'
p209
(dp210
g3
(lp211
g5
(S'\x07\x1c\x03\x01\x00\x00\x00\x00\x00\x00'
p212
tp213
Rp214
assS'/sata/lawbox/dump/gov.us.courts.united_states_reports/1st/35/Boone_v._Chiles,_35_US_177.html'
p215
(dp216
g3
(lp217
g5
(S'\x07,\x02\x03\x00\x00\x00\x00\x00\x00'
p218
tp219
Rp220
assS'/sata/lawbox/dump/gov.us.courts.united_states_reports/1st/2/United_States_v._Vigol,_2_US_346.html'
p221
(dp222
g3
(lp223
g5
(S'\x07\x03\x04\x01\x00\x00\x00\x00\x00\x00'
p224
tp225
Rp226
assS'/sata/lawbox/dump/gov.us.courts.united_states_reports/1st/2/Stiles_v._Donaldson,_2_US_264.html'
p227
(dp228
g3
(lp229
g5
(S'\x07\x04\t\x01\x00\x00\x00\x00\x00\x00'
p230
tp231
Rp232
assS'/sata/lawbox/dump/gov.us.courts.united_states_reports/1st/18/McClung_v._Ross,_18_US_116.html'
p233
(dp234
g3
(lp235
g5
(S'\x07\x1c\x02\x0e\x00\x00\x00\x00\x00\x00'
p236
tp237
Rp238
assS'/sata/lawbox/dump/gov.us.courts.united_states_reports/1st/17/United_States_v._Rice,_17_US_246.html'
p239
(dp240
g3
(lp241
g5
(S'\x07\x1b\x02\x16\x00\x00\x00\x00\x00\x00'
p242
tp243
Rp244
assS'/sata/lawbox/dump/gov.us.courts.united_states_reports/1st/16/THE_ANNE,_16_US_201.html'
p245
(dp246
g3
(lp247
g5
(S'\x07\x1a\x03\x07\x00\x00\x00\x00\x00\x00'
p248
tp249
Rp250
assS'/sata/lawbox/dump/gov.us.courts.united_states_reports/1st/7/McCulloch_v._Maryland,_17_US_316.html'
p251
(dp252
g3
(lp253
g5
(S'\x07\x1b\x03\x06\x00\x00\x00\x00\x00\x00'
p254
tp255
Rp256
assS'/sata/lawbox/dump/gov.us.courts.united_states_reports/1st/4/Smythe_v._Banks,_4_US_329.html'
p257
(dp258
g3
(lp259
g5
(S'\x07\x05\x04\x01\x00\x00\x00\x00\x00\x00'
p260
tp261
Rp262
assS'/sata/lawbox/dump/gov.us.courts.united_states_reports/1st/17/THE_DIVINA_PASTORA,_17_US_37.html'
p263
(dp264
g3
(lp265
g5
(S'\x07\x1b\x02\x05\x00\x00\x00\x00\x00\x00'
p266
tp267
Rp268
assS'/sata/lawbox/dump/gov.us.courts.united_states_reports/1st/18/Loughborough_v._Blake,_18_US_317.html'
p269
(dp270
g3
(lp271
g5
(S'\x07\x1c\x03\n\x00\x00\x00\x00\x00\x00'
p272
tp273
Rp274
assS'/sata/lawbox/dump/gov.us.courts.united_states_reports/1st/17/Van_Ness_v._Buel,_17_US_74.html'
p275
(dp276
g3
(lp277
g5
(S'\x07\x1b\x02\x08\x00\x00\x00\x00\x00\x00'
p278
tp279
Rp280
assS'/sata/lawbox/dump/gov.us.courts.united_states_reports/1st/16/Hampton_v._McConnell,_16_US_110.html'
p281
(dp282
g3
(lp283
g5
(S'\x07\x1a\x02\x18\x00\x00\x00\x00\x00\x00'
p284
tp285
Rp286
assS'/sata/lawbox/dump/gov.us.courts.united_states_reports/1st/2/Perit_v._Wallis,_2_US_252.html'
p287
(dp288
g3
(lp289
g5
(S'\x07\x04\t\x01\x00\x00\x00\x00\x00\x00'
p290
tp291
Rp292
assS'/sata/lawbox/dump/gov.us.courts.united_states_reports/1st/2/Shoemaker_v._Keely,_2_US_213.html'
p293
(dp294
g3
(lp295
g5
(S'\x07\x01\x04\x01\x00\x00\x00\x00\x00\x00'
p296
tp297
Rp298
assS'/sata/lawbox/dump/gov.us.courts.united_states_reports/1st/35/Wherry_v._United_States,_35_US_338.html'
p299
(dp300
g3
(lp301
g5
(S'\x07,\x02\x12\x00\x00\x00\x00\x00\x00'
p302
tp303
Rp304
assS'/sata/lawbox/dump/gov.us.courts.united_states_reports/1st/2/United_States_v._Mitchell,_2_US_348.html'
p305
(dp306
g3
(lp307
g5
(S'\x07\x03\x04\x01\x00\x00\x00\x00\x00\x00'
p308
tp309
Rp310
assS'/sata/lawbox/dump/gov.us.courts.united_states_reports/1st/2/Collet_v._Collet,_2_US_294.html'
p311
(dp312
g3
(lp313
g5
(S'\x07\x00\x04\x01\x00\x00\x00\x00\x00\x00'
p314
tp315
Rp316
assS'/sata/lawbox/dump/gov.us.courts.united_states_reports/1st/4/Respublica_v._Bob,_4_US_145.html'
p317
(dp318
g3
(lp319
g5
(S'\x07\x03\t\x01\x00\x00\x00\x00\x00\x00'
p320
tp321
Rp322
assS'/sata/lawbox/dump/gov.us.courts.united_states_reports/1st/16/THE_AMIABLE_NANCY,_16_US_252.html'
p323
(dp324
g3
(lp325
g5
(S'\x07\x1a\x03\x0b\x00\x00\x00\x00\x00\x00'
p326
tp327
Rp328
assS'/sata/lawbox/dump/gov.us.courts.united_states_reports/1st/4/Russel_v._Union_Insurance_Company,_4_US_421.html'
p329
(dp330
g3
(lp331
g5
(S'\x07\x0e\x04\x01\x00\x00\x00\x00\x00\x00'
p332
tp333
Rp334
assS"/sata/lawbox/dump/gov.us.courts.united_states_reports/1st/4/Water's_Executors_v._McLellan,_4_US_208.html"
p335
(dp336
g3
(lp337
g5
(S'\x07\x08\x03\x01\x00\x00\x00\x00\x00\x00'
p338
tp339
Rp340
assS"/sata/lawbox/dump/gov.us.courts.united_states_reports/1st/2/MAXWELL'S_v._Levy,_2_US_381.html"
p341
(dp342
g3
(lp343
g5
(S'\x07\x05\x04\x01\x00\x00\x00\x00\x00\x00'
p344
tp345
Rp346
assS'/sata/lawbox/dump/gov.us.courts.united_states_reports/1st/18/United_States_v._Smith,_18_US_153.html'
p347
(dp348
g3
(lp349
g5
(S'\x07\x1c\x02\x19\x00\x00\x00\x00\x00\x00'
p350
tp351
Rp352
assS'/sata/lawbox/dump/gov.us.courts.united_states_reports/1st/4/Stansbury_v._Marks,_4_US_130.html'
p353
(dp354
g3
(lp355
g5
(S'\x07\x01\x04\x01\x00\x00\x00\x00\x00\x00'
p356
tp357
Rp358
assS'/sata/lawbox/dump/gov.us.courts.united_states_reports/1st/4/Donath_v._THE_INSURANCE_COMPANY_OF_NORTH_AMERICA,_4_US_463.html'
p359
(dp360
g3
(lp361
g5
(S'\x07\x0e\x0c\x01\x00\x00\x00\x00\x00\x00'
p362
tp363
Rp364
assS'/sata/lawbox/dump/gov.us.courts.united_states_reports/1st/4/Bell_v._Andrews,_4_US_152.html'
p365
(dp366
g3
(lp367
g5
(S'\x07\x04\x03\x01\x00\x00\x00\x00\x00\x00'
p368
tp369
Rp370
assS'/sata/lawbox/dump/gov.us.courts.united_states_reports/1st/18/United_States_v._Wiltberger,_18_US_76.html'
p371
(dp372
g3
(lp373
g5
(S'\x07\x1c\x02\x12\x00\x00\x00\x00\x00\x00'
p374
tp375
Rp376
assS'/sata/lawbox/dump/gov.us.courts.united_states_reports/1st/4/THE_BANK_OF_NORTH-AMERICA_v._Pettit,_4_US_127.html'
p377
(dp378
g3
(lp379
g5
(S'\x07\x01\x04\x01\x00\x00\x00\x00\x00\x00'
p380
tp381
Rp382
assS'/sata/lawbox/dump/gov.us.courts.united_states_reports/1st/2/LIVINGSTON_ET_AL._v._Swanwick,_2_US_300.html'
p383
(dp384
g3
(lp385
g5
(S'\x07\x01\x04\x01\x00\x00\x00\x00\x00\x00'
p386
tp387
Rp388
assS'/sata/lawbox/dump/gov.us.courts.united_states_reports/1st/4/Conframp_v._Bunel,_4_US_419.html'
p389
(dp390
g3
(lp391
g5
(S'\x07\x0e\x04\x01\x00\x00\x00\x00\x00\x00'
p392
tp393
Rp394
assS'/sata/lawbox/dump/gov.us.courts.united_states_reports/1st/35/New_Orleans_v._THE_UNITED_STATES.,_35_US_526.html'
p395
(dp396
g3
(lp397
g5
(S'\x07,\x02\t\x00\x00\x00\x00\x00\x00'
p398
tp399
Rp400
assS'/sata/lawbox/dump/gov.us.courts.united_states_reports/1st/35/Brown_v._Swann,_35_US_497.html'
p401
(dp402
g3
(lp403
g5
(S'\x07,\x02\x12\x00\x00\x00\x00\x00\x00'
p404
tp405
Rp406
assS'/sata/lawbox/dump/gov.us.courts.united_states_reports/1st/35/Elliott_v._Swartwout,_35_US_137.html'
p407
(dp408
g3
(lp409
g5
(S'\x07,\x02\x01\x00\x00\x00\x00\x00\x00'
p410
tp411
Rp412
assS'/sata/lawbox/dump/gov.us.courts.united_states_reports/1st/17/Wheaton_v._Sexton,_17_US_243.html'
p413
(dp414
g3
(lp415
g5
(S'\x07\x1b\x03\x0c\x00\x00\x00\x00\x00\x00'
p416
tp417
Rp418
assS'/sata/lawbox/dump/gov.us.courts.united_states_reports/1st/3/United_States_v._Fries,_3_US_515.html'
p419
(dp420
g3
(lp421
g5
(S'\x07\x07\x04\x01\x00\x00\x00\x00\x00\x00'
p422
tp423
Rp424
assS'/sata/lawbox/dump/gov.us.courts.united_states_reports/1st/16/THE_SAMUEL,_16_US_36.html'
p425
(dp426
g3
(lp427
g5
(S'\x07\x1a\x02\x0b\x00\x00\x00\x00\x00\x00'
p428
tp429
Rp430
assS'/sata/lawbox/dump/gov.us.courts.united_states_reports/1st/2/United_States_v._Guinet,_2_US_321.html'
p431
(dp432
g3
(lp433
g5
(S'\x07\x03\x04\x01\x00\x00\x00\x00\x00\x00'
p434
tp435
Rp436
assS'/sata/lawbox/dump/gov.us.courts.united_states_reports/1st/4/Little_v._DAWSON_ET_AL.,_4_US_111.html'
p437
(dp438
g3
(lp439
g5
(S'\x06\xff\t\x01\x00\x00\x00\x00\x00\x00'
p440
tp441
Rp442
assS'/sata/lawbox/dump/gov.us.courts.united_states_reports/1st/16/Patton_v._Nicholson,_16_US_204.html'
p443
(dp444
g3
(lp445
g5
(S'\x07\x1a\x02\x13\x00\x00\x00\x00\x00\x00'
p446
tp447
Rp448
assS'/sata/lawbox/dump/gov.us.courts.united_states_reports/1st/2/Pleasants_v._Pemberton,_2_US_196.html'
p449
(dp450
g3
(lp451
g5
(S'\x07\x01\x01\x01\x00\x00\x00\x00\x00\x00'
p452
tp453
Rp454
assS'/sata/lawbox/dump/gov.us.courts.united_states_reports/1st/4/Mitchell_v._Smith,_4_US_269.html'
p455
(dp456
g3
(lp457
g5
(S'\x07\x0b\x03\x01\x00\x00\x00\x00\x00\x00'
p458
tp459
Rp460
assS'/sata/lawbox/dump/gov.us.courts.united_states_reports/1st/2/Wood_v._Roach,_2_US_180.html'
p461
(dp462
g3
(lp463
g5
(S'\x07\x00\t\x01\x00\x00\x00\x00\x00\x00'
p464
tp465
Rp466
assS'/sata/lawbox/dump/gov.us.courts.united_states_reports/1st/3/Lessee_v._Pfout,_3_US_486.html'
p467
(dp468
g3
(lp469
g5
(S'\x07\x06\x0c\x01\x00\x00\x00\x00\x00\x00'
p470
tp471
Rp472
assS'/sata/lawbox/dump/gov.us.courts.united_states_reports/1st/35/Crowell_v._Randell,_35_US_368.html'
p473
(dp474
g3
(lp475
g5
(S'\x07,\x01\x1c\x00\x00\x00\x00\x00\x00'
p476
tp477
Rp478
assS'/sata/lawbox/dump/gov.us.courts.united_states_reports/1st/4/Dupont_v._Pichon,_4_US_321.html'
p479
(dp480
g3
(lp481
g5
(S'\x07\r\x03\x01\x00\x00\x00\x00\x00\x00'
p482
tp483
Rp484
assS'/sata/lawbox/dump/gov.us.courts.united_states_reports/1st/18/Blake_v._Doherty,_18_US_359.html'
p485
(dp486
g3
(lp487
g5
(S'\x07\x1c\x03\r\x00\x00\x00\x00\x00\x00'
p488
tp489
Rp490
assS'/sata/lawbox/dump/gov.us.courts.united_states_reports/1st/4/Evans_v._Bollen,_4_US_342.html'
p491
(dp492
g3
(lp493
g5
(S'\x07\x08\x04\x01\x00\x00\x00\x00\x00\x00'
p494
tp495
Rp496
assS'/sata/lawbox/dump/gov.us.courts.united_states_reports/1st/4/Thurston_v._Koch,_4_US_348.html'
p497
(dp498
g3
(lp499
g5
(S'\x07\x08\n\x01\x00\x00\x00\x00\x00\x00'
p500
tp501
Rp502
assS'/sata/lawbox/dump/gov.us.courts.united_states_reports/1st/128/United_States_ex_rel._Dunlap_v._Black,_128_US_40.html'
p503
(dp504
g3
(lp505
g5
(S'\x07`\n\x16\x00\x00\x00\x00\x00\x00'
p506
tp507
Rp508
assS"/sata/lawbox/dump/gov.us.courts.united_states_reports/1st/4/Boyd's_Lessee_v._Cowan,_4_US_138.html"
p509
(dp510
g3
(lp511
g5
(S'\x07\x02\x04\x01\x00\x00\x00\x00\x00\x00'
p512
tp513
Rp514
assS'/sata/lawbox/dump/gov.us.courts.united_states_reports/1st/17/THE_GENERAL_SMITH,_17_US_214.html'
p515
(dp516
g3
(lp517
g5
(S'\x07\x1b\x03\n\x00\x00\x00\x00\x00\x00'
p518
tp519
Rp520
assS'/sata/lawbox/dump/gov.us.courts.united_states_reports/1st/2/Cupisino_v._Perez,_2_US_194.html'
p521
(dp522
g3
(lp523
g5
(S'\x07\x00\t\x01\x00\x00\x00\x00\x00\x00'
p524
tp525
Rp526
assS'/sata/lawbox/dump/gov.us.courts.united_states_reports/1st/2/Vanhorne_v._Dorrance,_2_US_304.html'
p527
(dp528
g3
(lp529
g5
(S'\x07\x03\x04\x01\x00\x00\x00\x00\x00\x00'
p530
tp531
Rp532
assS'/sata/lawbox/dump/gov.us.courts.united_states_reports/1st/35/Hagan_v._Foison,_35_US_160.html'
p533
(dp534
g3
(lp535
g5
(S'\x07,\x01\x01\x00\x00\x00\x00\x00\x00'
p536
tp537
Rp538
assS'/sata/lawbox/dump/gov.us.courts.united_states_reports/1st/2/Hollingsworth_v._Adams,_2_US_396.html'
p539
(dp540
g3
(lp541
g5
(S'\x07\x06\x04\x01\x00\x00\x00\x00\x00\x00'
p542
tp543
Rp544
assS'/sata/lawbox/dump/gov.us.courts.united_states_reports/1st/170/Drake_v._Kochersperger,_170_US_303.html'
p545
(dp546
g3
(lp547
g5
(S'\x07i\n\x01\x00\x00\x00\x00\x00\x00'
p548
tp549
Rp550
assS'/sata/lawbox/dump/gov.us.courts.united_states_reports/1st/2/United_States_v._Insurgents,_2_US_335.html'
p551
(dp552
g3
(lp553
g5
(S'\x07\x03\x04\x01\x00\x00\x00\x00\x00\x00'
p554
tp555
Rp556
assS'/sata/lawbox/dump/gov.us.courts.united_states_reports/1st/35/TUCKER_ET_AL._v._Moreland,_35_US_43.html'
p557
(dp558
g3
(lp559
g5
(S'\x07,\x01\x17\x00\x00\x00\x00\x00\x00'
p560
tp561
Rp562
assS'/sata/lawbox/dump/gov.ny.courts.new_york_reports/1st/303/Matter_of_Edwin_R.,_60_Misc._2d_355.html'
p563
(dp564
S'court'
p565
S'nyfamct'
p566
ssS'/sata/lawbox/dump/gov.us.courts.united_states_reports/1st/35/Wallingsford_v._Allen,_35_US_583.html'
p567
(dp568
g3
(lp569
g5
(S'\x07,\x02\x1a\x00\x00\x00\x00\x00\x00'
p570
tp571
Rp572
assS'/sata/lawbox/dump/gov.us.courts.united_states_reports/1st/2/Cowperthwaite_v._Jones,_2_US_55.html'
p573
(dp574
g3
(lp575
g5
(S'\x06\xfe\x08\x01\x00\x00\x00\x00\x00\x00'
p576
tp577
Rp578
assS'/sata/lawbox/dump/gov.us.courts.united_states_reports/1st/2/Fitzgerald_v._Caldwell,_2_US_215.html'
p579
(dp580
g3
(lp581
g5
(S'\x07\x01\x04\x01\x00\x00\x00\x00\x00\x00'
p582
tp583
Rp584
assS'/sata/lawbox/dump/gov.us.courts.united_states_reports/1st/16/Robinson_v._Campbell,_16_US_212.html'
p585
(dp586
g3
(lp587
g5
(S'\x07\x1a\x02\x18\x00\x00\x00\x00\x00\x00'
p588
tp589
Rp590
assS'/sata/lawbox/dump/gov.us.courts.united_states_reports/1st/35/Mackey_v._THE_UNITED_STATES.,_35_US_261.html'
p591
(dp592
g3
(lp593
g5
(S'\x07,\x02\x12\x00\x00\x00\x00\x00\x00'
p594
tp595
Rp596
assS'/sata/lawbox/dump/gov.us.courts.united_states_reports/1st/2/United_States_v._Caldwell,_2_US_333.html'
p597
(dp598
g3
(lp599
g5
(S'\x07\x03\x04\x01\x00\x00\x00\x00\x00\x00'
p600
tp601
Rp602
assS'/sata/lawbox/dump/gov.us.courts.united_states_reports/1st/18/Lyle_v._Rodgers,_18_US_394.html'
p603
(dp604
g3
(lp605
g5
(S'\x07\x1c\x03\x0f\x00\x00\x00\x00\x00\x00'
p606
tp607
Rp608
assS'/sata/lawbox/dump/gov.us.courts.united_states_reports/1st/2/Boyd_v._Bopst,_2_US_91.html'
p609
(dp610
g3
(lp611
g5
(S'\x06\xf9\t\x01\x00\x00\x00\x00\x00\x00'
p612
tp613
Rp614
assS'/sata/lawbox/dump/gov.us.courts.united_states_reports/1st/4/Guppy_v._Brown,_4_US_410.html'
p615
(dp616
g3
(lp617
g5
(S'\x07\r\n\x01\x00\x00\x00\x00\x00\x00'
p618
tp619
Rp620
assS"/sata/lawbox/dump/gov.us.courts.united_states_reports/1st/4/Maxfield's_Lessee_v._Levy,_4_US_330.html"
p621
(dp622
g3
(lp623
g5
(S'\x07\x05\x04\x01\x00\x00\x00\x00\x00\x00'
p624
tp625
Rp626
assS'/sata/lawbox/dump/gov.us.courts.united_states_reports/1st/5/Abercrombie_v._Dupuis,_5_US_343.html'
p627
(dp628
g3
(lp629
g5
(S'\x07\x0b\x02\x1c\x00\x00\x00\x00\x00\x00'
p630
tp631
Rp632
assS'/sata/lawbox/dump/gov.us.courts.united_states_reports/1st/18/United_States_v._Lancaster,_18_US_434.html'
p633
(dp634
g3
(lp635
g5
(S'\x07\x1c\x03\x10\x00\x00\x00\x00\x00\x00'
p636
tp637
Rp638
assS'/sata/lawbox/dump/gov.us.courts.united_states_reports/1st/35/Smith_v._United_States,_35_US_326.html'
p639
(dp640
g3
(lp641
g5
(S'\x07,\x02\n\x00\x00\x00\x00\x00\x00'
p642
tp643
Rp644
assS'/sata/lawbox/dump/gov.us.courts.united_states_reports/1st/16/United_States_v._Palmer,_16_US_610.html'
p645
(dp646
g3
(lp647
g5
(S'\x07\x1a\x03\x0e\x00\x00\x00\x00\x00\x00'
p648
tp649
Rp650
assS'/sata/lawbox/dump/gov.us.courts.united_states_reports/1st/17/McArthur_v._Browder,_17_US_488.html'
p651
(dp652
g3
(lp653
g5
(S'\x07\x1b\x03\x0c\x00\x00\x00\x00\x00\x00'
p654
tp655
Rp656
assS"/sata/lawbox/dump/gov.us.courts.united_states_reports/1st/2/RUSTON'S_v._Ruston,_2_US_243.html"
p657
(dp658
g3
(lp659
g5
(S'\x07\x04\x03\x01\x00\x00\x00\x00\x00\x00'
p660
tp661
Rp662
assS'/sata/lawbox/dump/com.west.bankruptcy_reporter/1st/37/Matter_of_Melvin_Liquid_Fertilizer_Co.,_Inc.,_37_BR_587.html'
p663
(dp664
S'court'
p665
S'ohsb'
p666
ssS'/sata/lawbox/dump/gov.ca.courts.california_appellate_reports/4th/113/People_v._KANAWYER,_7_Cal._Rptr._3d_401.html'
p667
(dp668
S'court'
p669
S'calctapp'
p670
ssS'/sata/lawbox/dump/gov.us.courts.united_states_reports/1st/17/Orr_v._Hodgson,_17_US_453.html'
p671
(dp672
g3
(lp673
g5
(S'\x07\x1b\x03\n\x00\x00\x00\x00\x00\x00'
p674
tp675
Rp676
assS'/sata/lawbox/dump/gov.us.courts.united_states_reports/1st/4/Kingston_v._Girard,_4_US_274.html'
p677
(dp678
g3
(lp679
g5
(S'\x07\x0b\x03\x01\x00\x00\x00\x00\x00\x00'
p680
tp681
Rp682
assS'/sata/lawbox/dump/gov.us.courts.united_states_reports/1st/3/Murgatroyd_v._Crawford,_3_US_491.html'
p683
(dp684
g3
(lp685
g5
(S'\x07\x07\x03\x01\x00\x00\x00\x00\x00\x00'
p686
tp687
Rp688
assS'/sata/lawbox/dump/gov.us.courts.united_states_reports/1st/4/Commonwealth_v._Franklin,_4_US_255.html'
p689
(dp690
g3
(lp691
g5
(S'\x07\n\x0c\x01\x00\x00\x00\x00\x00\x00'
p692
tp693
Rp694
assS'/sata/lawbox/dump/gov.us.courts.united_states_reports/1st/2/Stansbury_v._Marks,_2_US_213.html'
p695
(dp696
g3
(lp697
g5
(S'\x07\x01\x04\x01\x00\x00\x00\x00\x00\x00'
p698
tp699
Rp700
assS'/sata/lawbox/dump/gov.us.courts.united_states_reports/1st/35/United_States_v._Sibbald,_35_US_313.html'
p701
(dp702
g3
(lp703
g5
(S'\x07,\x02\x06\x00\x00\x00\x00\x00\x00'
p704
tp705
Rp706
assS'/sata/lawbox/dump/com.west.bankruptcy_reporter/1st/47/Matter_of_Plunkett,_47_BR_172.html'
p707
(dp708
g177
S'wieb'
p709
ssS'/sata/lawbox/dump/com.west.northwestern_reporter/2d/143/Jorgenson_v._Dronebarger,_143_NW_2d_869.html'
p710
(dp711
S'court'
p712
g30
ssS'/sata/lawbox/dump/gov.us.courts.united_states_reports/1st/4/Symonds_v._The_Union_Insurance_Company,_4_US_417.html'
p713
(dp714
g3
(lp715
g5
(S'\x07\x0e\x04\x01\x00\x00\x00\x00\x00\x00'
p716
tp717
Rp718
assS'/sata/lawbox/dump/gov.us.courts.united_states_reports/1st/16/THE_STAR,_16_US_37.html'
p719
(dp720
g3
(lp721
g5
(S'\x07\x1a\x02\x10\x00\x00\x00\x00\x00\x00'
p722
tp723
Rp724
assS'/sata/lawbox/dump/gov.us.courts.united_states_reports/1st/3/Breckbill_v._Turnpike_Company,_3_US_496.html'
p725
(dp726
g3
(lp727
g5
(S'\x07\x07\x03\x01\x00\x00\x00\x00\x00\x00'
p728
tp729
Rp730
assS'/sata/lawbox/dump/gov.us.courts.united_states_reports/1st/2/MCarty_v._Emlen,_2_US_277.html'
p731
(dp732
g3
(lp733
g5
(S'\x07\x05\x03\x01\x00\x00\x00\x00\x00\x00'
p734
tp735
Rp736
assS'/sata/lawbox/dump/gov.us.courts.united_states_reports/1st/5/Wood_v._Owings,_5_US_239.html'
p737
(dp738
g3
(lp739
g5
(S'\x07\x0b\x03\x01\x00\x00\x00\x00\x00\x00'
p740
tp741
Rp742
assS'/sata/lawbox/dump/gov.us.courts.united_states_reports/1st/4/Commonwealth_v._Baynton,_4_US_282.html'
p743
(dp744
g3
(lp745
g5
(S'\x07\x0b\t\x01\x00\x00\x00\x00\x00\x00'
p746
tp747
Rp748
assS'/sata/lawbox/dump/gov.us.courts.united_states_reports/1st/16/Murray_v._Baker,_16_US_249.html'
p749
(dp750
g3
(lp751
g5
(S'\x07\x1a\x03\t\x00\x00\x00\x00\x00\x00'
p752
tp753
Rp754
assS'/sata/lawbox/dump/gov.us.courts.united_states_reports/1st/35/Stanley_v._Gadsby,_35_US_521.html'
p755
(dp756
g3
(lp757
g5
(S'\x07,\x02\x1a\x00\x00\x00\x00\x00\x00'
p758
tp759
Rp760
assS'/sata/lawbox/dump/gov.us.courts.united_states_reports/1st/4/Eddowes_v._Niell,_4_US_133.html'
p761
(dp762
g3
(lp763
g5
(S'\x07\x01\x04\x01\x00\x00\x00\x00\x00\x00'
p764
tp765
Rp766
assS'/sata/lawbox/dump/gov.us.courts.united_states_reports/1st/35/United_States_v._Fernandez,_35_US_303.html'
p767
(dp768
g3
(lp769
g5
(S'\x07,\x02\x12\x00\x00\x00\x00\x00\x00'
p770
tp771
Rp772
assS'/sata/lawbox/dump/gov.us.courts.united_states_reports/1st/4/Lessee_v._Dunning,_4_US_120.html'
p773
(dp774
g3
(lp775
g5
(S'\x07\x00\x04\x01\x00\x00\x00\x00\x00\x00'
p776
tp777
Rp778
assS'/sata/lawbox/dump/gov.us.courts.united_states_reports/1st/4/Morgan_v._The_Insurance_Company_of_North_America,_4_US_455.html'
p779
(dp780
g3
(lp781
g5
(S'\x07\x0e\x0c\x01\x00\x00\x00\x00\x00\x00'
p782
tp783
Rp784
assS'/sata/lawbox/dump/gov.us.courts.united_states_reports/1st/18/Wallace_v._Anderson,_18_US_291.html'
p785
(dp786
g3
(lp787
g5
(S'\x07\x1c\x03\x08\x00\x00\x00\x00\x00\x00'
p788
tp789
Rp790
assS'/sata/lawbox/dump/gov.us.courts.united_states_reports/1st/17/Brown_v._Gilman,_17_US_255.html'
p791
(dp792
g3
(lp793
g5
(S'\x07\x1b\x02\x18\x00\x00\x00\x00\x00\x00'
p794
tp795
Rp796
assS'/sata/lawbox/dump/gov.us.courts.united_states_reports/1st/2/Respublica_v._Roberts,_2_US_124.html'
p797
(dp798
g3
(lp799
g5
(S'\x06\xff\x04\x01\x00\x00\x00\x00\x00\x00'
p800
tp801
Rp802
assS'/sata/lawbox/dump/gov.us.courts.united_states_reports/1st/4/Bussy_v._Donaldson,_4_US_206.html'
p803
(dp804
g3
(lp805
g5
(S'\x07\x08\x03\x01\x00\x00\x00\x00\x00\x00'
p806
tp807
Rp808
assS'/sata/lawbox/dump/gov.us.courts.united_states_reports/1st/17/THE_CALEDONIAN,_17_US_60.html'
p809
(dp810
g3
(lp811
g5
(S'\x07\x1b\x02\x10\x00\x00\x00\x00\x00\x00'
p812
tp813
Rp814
assS'/sata/lawbox/dump/gov.us.courts.united_states_reports/1st/4/Bender_v._Fromberger,_4_US_436.html'
p815
(dp816
g3
(lp817
g5
(S'\x07\x0e\x0c\x01\x00\x00\x00\x00\x00\x00'
p818
tp819
Rp820
assS'/sata/lawbox/dump/gov.us.courts.united_states_reports/1st/16/Dugan_v._United_States,_16_US_172.html'
p821
(dp822
g3
(lp823
g5
(S'\x07\x1a\x02\x13\x00\x00\x00\x00\x00\x00'
p824
tp825
Rp826
assS"/sata/lawbox/dump/gov.us.courts.united_states_reports/1st/18/MECHANICS'BANK_v._Bank_of_Columbia,_18_US_150.html"
p827
(dp828
g3
(lp829
g5
(S'\x07\x1c\x03\r\x00\x00\x00\x00\x00\x00'
p830
tp831
Rp832
assS'/sata/lawbox/dump/gov.us.courts.united_states_reports/1st/35/Gilman_v._Rives,_35_US_298.html'
p833
(dp834
g3
(lp835
g5
(S'\x07,\x02\x18\x00\x00\x00\x00\x00\x00'
p836
tp837
Rp838
assS'/sata/lawbox/dump/gov.us.courts.united_states_reports/1st/35/Hagan_v._Lucas,_35_US_400.html'
p839
(dp840
g3
(lp841
g5
(S'\x07,\x02\x1a\x00\x00\x00\x00\x00\x00'
p842
tp843
Rp844
assS'/sata/lawbox/dump/gov.us.courts.united_states_reports/1st/17/Weightman_v._Caldwell,_17_US_53.html'
p845
(dp846
g3
(lp847
g5
(S'\x07\x1b\x02\n\x00\x00\x00\x00\x00\x00'
p848
tp849
Rp850
assS'/sata/lawbox/dump/gov.us.courts.united_states_reports/1st/16/Evans_v._Eaton,_16_US_454.html'
p851
(dp852
g3
(lp853
g5
(S'\x07\x1a\x03\x07\x00\x00\x00\x00\x00\x00'
p854
tp855
Rp856
assS'/sata/lawbox/dump/gov.us.courts.united_states_reports/1st/4/Sansom_v._Ball,_4_US_459.html'
p857
(dp858
g3
(lp859
g5
(S'\x07\x0e\x0c\x01\x00\x00\x00\x00\x00\x00'
p860
tp861
Rp862
assS'/sata/lawbox/dump/gov.us.courts.united_states_reports/1st/16/Ross_v._Triplett,_16_US_600.html'
p863
(dp864
g3
(lp865
g5
(S'\x07\x1a\x03\x0c\x00\x00\x00\x00\x00\x00'
p866
tp867
Rp868
assS'/sata/lawbox/dump/gov.ca.courts.california_appellate_reports/2d/256/People_v._Gonzales,_256_Cal._App._2d_50.html'
p869
(dp870
g3
(lp871
g5
(S'\x07\xaf\x0b\x10\x00\x00\x00\x00\x00\x00'
p872
tp873
Rp874
assS'/sata/lawbox/dump/gov.us.courts.united_states_reports/1st/16/Craig_v._Leslie,_16_US_563.html'
p875
(dp876
g3
(lp877
g5
(S'\x07\x1a\x03\x0b\x00\x00\x00\x00\x00\x00'
p878
tp879
Rp880
assS'/sata/lawbox/dump/gov.us.courts.united_states_reports/1st/16/Lanusse_v._Barker,_16_US_101.html'
p881
(dp882
g3
(lp883
g5
(S'\x07\x1a\x02\x11\x00\x00\x00\x00\x00\x00'
p884
tp885
Rp886
assS'/sata/lawbox/dump/gov.us.courts.united_states_reports/1st/4/Commonwealth_v._Dillon,_4_US_116.html'
p887
(dp888
g3
(lp889
g5
(S'\x07\x00\x01\x01\x00\x00\x00\x00\x00\x00'
p890
tp891
Rp892
assS'/sata/lawbox/dump/gov.us.courts.united_states_reports/1st/18/United_States_v._Klintock,_18_US_144.html'
p893
(dp894
g3
(lp895
g5
(S'\x07\x1c\x02\x18\x00\x00\x00\x00\x00\x00'
p896
tp897
Rp898
assS'/sata/lawbox/dump/gov.us.courts.united_states_reports/1st/35/Jackson_v._Ashton,_35_US_480.html'
p899
(dp900
g3
(lp901
g5
(S'\x07,\x02\x1a\x00\x00\x00\x00\x00\x00'
p902
tp903
Rp904
assS'/sata/lawbox/dump/gov.us.courts.united_states_reports/1st/3/United_States_v._Insurgents,_3_US_513.html'
p905
(dp906
g3
(lp907
g5
(S'\x07\x07\x04\x01\x00\x00\x00\x00\x00\x00'
p908
tp909
Rp910
assS'/sata/lawbox/dump/gov.us.courts.united_states_reports/1st/35/Peter_v._Beverly,_35_US_532.html'
p911
(dp912
g3
(lp913
g5
(S'\x07,\x02\x16\x00\x00\x00\x00\x00\x00'
p914
tp915
Rp916
assS'/sata/lawbox/dump/gov.us.courts.united_states_reports/1st/35/Ellicott_v._Pearl,_35_US_412.html'
p917
(dp918
g3
(lp919
g5
(S'\x07,\x02\x10\x00\x00\x00\x00\x00\x00'
p920
tp921
Rp922
assS'/sata/lawbox/dump/gov.us.courts.united_states_reports/1st/17/Sturges_v._Crowninshield,_17_US_122.html'
p923
(dp924
g3
(lp925
g5
(S'\x07\x1b\x02\x11\x00\x00\x00\x00\x00\x00'
p926
tp927
Rp928
assS'/sata/lawbox/dump/gov.us.courts.united_states_reports/1st/16/THE_FORTUNA,_16_US_112.html'
p929
(dp930
g3
(lp931
g5
(S'\x07\x1a\x02\x1a\x00\x00\x00\x00\x00\x00'
p932
tp933
Rp934
assS'/sata/lawbox/dump/gov.us.courts.united_states_reports/1st/16/THE_SAN_PEDRO,_16_US_36.html'
p935
(dp936
g3
(lp937
g5
(S'\x07\x1a\x02\x0b\x00\x00\x00\x00\x00\x00'
p938
tp939
Rp940
assS'/sata/lawbox/dump/gov.us.courts.united_states_reports/1st/18/Perkins_v._Ramsey,_18_US_269.html'
p941
(dp942
g3
(lp943
g5
(S'\x07\x1c\x03\x06\x00\x00\x00\x00\x00\x00'
p944
tp945
Rp946
assS'/sata/lawbox/dump/gov.us.courts.united_states_reports/1st/4/Crousillat_v._Ball,_4_US_294.html'
p947
(dp948
g3
(lp949
g5
(S'\x07\x0b\x0c\x01\x00\x00\x00\x00\x00\x00'
p950
tp951
Rp952
assS'/sata/lawbox/dump/com.west.pacific_reporter/2d/61/Martin_v._Postal_Union_Life_Ins._Co.,_16_Cal._App._2d_570.html'
p953
(dp954
S'dates'
p955
(lp956
cdatetime
date
p957
(S'\x07\x90\t\x1c'
p958
tp959
Rp960
assS'/sata/lawbox/dump/gov.us.courts.united_states_reports/1st/5/Wilson_v._Mason,_5_US_44.html'
p961
(dp962
g3
(lp963
g5
(S'\x07\t\x0c\x0f\x00\x00\x00\x00\x00\x00'
p964
tp965
Rp966
assS'/sata/lawbox/dump/gov.us.courts.united_states_reports/1st/17/Evans_v._Phillips,_17_US_73.html'
p967
(dp968
g3
(lp969
g5
(S'\x07\x1b\x02\x0b\x00\x00\x00\x00\x00\x00'
p970
tp971
Rp972
assS"/sata/lawbox/dump/gov.us.courts.united_states_reports/1st/4/Moliere's_Lessee_v._Noe,_4_US_450.html"
p973
(dp974
g3
(lp975
g5
(S'\x07\x0e\x0c\x01\x00\x00\x00\x00\x00\x00'
p976
tp977
Rp978
assS'/sata/lawbox/dump/gov.us.courts.united_states_reports/1st/17/McCulloch_v._Maryland,_17_US_316.html'
p979
(dp980
g3
(lp981
g5
(S'\x07\x1b\x03\x06\x00\x00\x00\x00\x00\x00'
p982
tp983
Rp984
assS'/sata/lawbox/dump/gov.us.courts.united_states_reports/1st/4/Snell_v._DELAWARE_INSURANCE_COMPANY,_4_US_430.html'
p985
(dp986
g3
(lp987
g5
(S'\x07\x0e\n\x01\x00\x00\x00\x00\x00\x00'
p988
tp989
Rp990
assS'/sata/lawbox/dump/gov.us.courts.united_states_reports/1st/4/Ozeas_v._Johnson,_4_US_434.html'
p991
(dp992
g3
(lp993
g5
(S'\x07\x0e\x0c\x01\x00\x00\x00\x00\x00\x00'
p994
tp995
Rp996
assS'/sata/lawbox/dump/com.west.bankruptcy_reporter/1st/41/In_re_Morgan,_41_BR_259.html'
p997
(dp998
g665
S'tneb'
p999
ssS'/sata/lawbox/dump/gov.us.courts.united_states_reports/1st/35/Leland_v._Wilkinson,_35_US_294.html'
p1000
(dp1001
g3
(lp1002
g5
(S'\x07,\x02\x11\x00\x00\x00\x00\x00\x00'
p1003
tp1004
Rp1005
assS'/sata/lawbox/dump/gov.us.courts.united_states_reports/1st/18/Campbell_v._Pratt,_18_US_429.html'
p1006
(dp1007
g3
(lp1008
g5
(S'\x07\x1c\x03\x11\x00\x00\x00\x00\x00\x00'
p1009
tp1010
Rp1011
assS'/sata/lawbox/dump/gov.us.courts.united_states_reports/1st/4/Bell_v._Beveridge,_4_US_272.html'
p1012
(dp1013
g3
(lp1014
g5
(S'\x07\x0b\x03\x01\x00\x00\x00\x00\x00\x00'
p1015
tp1016
Rp1017
assS'/sata/lawbox/dump/gov.us.courts.united_states_reports/1st/4/Knox_v._Greenleaf,_4_US_360.html'
p1018
(dp1019
g3
(lp1020
g5
(S'\x07\n\x05\x01\x00\x00\x00\x00\x00\x00'
p1021
tp1022
Rp1023
assS'/sata/lawbox/dump/gov.us.courts.united_states_reports/1st/4/Dutilh_v._Gatliff,_4_US_446.html'
p1024
(dp1025
g3
(lp1026
g5
(S'\x07\x0e\x0c\x01\x00\x00\x00\x00\x00\x00'
p1027
tp1028
Rp1029
assS'/sata/lawbox/dump/gov.us.courts.united_states_reports/1st/17/Eliason_v._Henshaw,_17_US_225.html'
p1030
(dp1031
g3
(lp1032
g5
(S'\x07\x1b\x02\x14\x00\x00\x00\x00\x00\x00'
p1033
tp1034
Rp1035
assS'/sata/lawbox/dump/gov.us.courts.united_states_reports/1st/16/Craig_v._Radford,_16_US_594.html'
p1036
(dp1037
g3
(lp1038
g5
(S'\x07\x1a\x03\x0c\x00\x00\x00\x00\x00\x00'
p1039
tp1040
Rp1041
assS'/sata/lawbox/dump/gov.us.courts.united_states_reports/1st/5/Turner_v._Fendall,_5_US_117.html'
p1042
(dp1043
g3
(lp1044
g5
(S'\x07\t\x0c\x15\x00\x00\x00\x00\x00\x00'
p1045
tp1046
Rp1047
assS'/sata/lawbox/dump/com.west.pacific_reporter/2d/100/Soares_v._City_of_Santa_Maria,_38_Cal._App._2d_215.html'
p1048
(dp1049
g3
(lp1050
g5
(S'\x07\x94\x03\x1d\x00\x00\x00\x00\x00\x00'
p1051
tp1052
Rp1053
assS'/sata/lawbox/dump/gov.us.courts.united_states_reports/1st/2/Stille_v._Lynch,_2_US_194.html'
p1054
(dp1055
g3
(lp1056
g5
(S'\x07\x00\t\x01\x00\x00\x00\x00\x00\x00'
p1057
tp1058
Rp1059
assS'/sata/lawbox/dump/gov.us.courts.united_states_reports/1st/2/Scott_v._Crosdale,_2_US_127.html'
p1060
(dp1061
g3
(lp1062
g5
(S'\x06\xff\t\x01\x00\x00\x00\x00\x00\x00'
p1063
tp1064
Rp1065
assS'/sata/lawbox/dump/gov.us.courts.united_states_reports/1st/4/Graham_v._Bickham,_4_US_149.html'
p1066
(dp1067
g3
(lp1068
g5
(S'\x07\x04\x0c\x01\x00\x00\x00\x00\x00\x00'
p1069
tp1070
Rp1071
assS'/sata/lawbox/dump/com.west.federal_supplement/2d/284/,_284_F._Supp._2d_711.html'
p1072
S'Jacob & Sons v. Saginaw County Dept. of Public Health'
p1073
sS'/sata/lawbox/dump/gov.us.courts.united_states_reports/1st/4/Levy_v._Bank_of_United_States,_4_US_234.html'
p1074
(dp1075
g3
(lp1076
g5
(S'\x07\n\x03\x01\x00\x00\x00\x00\x00\x00'
p1077
tp1078
Rp1079
assS'/sata/lawbox/dump/gov.us.courts.united_states_reports/1st/16/Gelston_v._Hoyt,_16_US_246.html'
p1080
(dp1081
g3
(lp1082
g5
(S'\x07\x1a\x02\x1b\x00\x00\x00\x00\x00\x00'
p1083
tp1084
Rp1085
assS'/sata/lawbox/dump/gov.us.courts.united_states_reports/1st/4/Commonwealth_v._Dallas,_4_US_229.html'
p1086
(dp1087
g3
(lp1088
g5
(S'\x07\t\x03\x01\x00\x00\x00\x00\x00\x00'
p1089
tp1090
Rp1091
assS'/sata/lawbox/dump/gov.us.courts.united_states_reports/1st/16/THE_NEPTUNE,_16_US_277.html'
p1092
(dp1093
g3
(lp1094
g5
(S'\x07\x1a\x02\x1a\x00\x00\x00\x00\x00\x00'
p1095
tp1096
Rp1097
assS'/sata/lawbox/dump/com.west.pacific_reporter/2d/149/Hill_v._Eaton_&_Smith,_65_Cal._App._2d_11.html'
p1098
(dp1099
S'dates'
p1100
(lp1101
g5
(S'\x07\x98\x06\x15\x00\x00\x00\x00\x00\x00'
p1102
tp1103
Rp1104
assS'/sata/lawbox/dump/gov.us.courts.united_states_reports/1st/16/United_States_v._Bevans,_16_US_336.html'
p1105
(dp1106
g3
(lp1107
g5
(S'\x07\x1a\x02\x15\x00\x00\x00\x00\x00\x00'
p1108
tp1109
Rp1110
assS'/sata/lawbox/dump/gov.us.courts.united_states_reports/1st/18/Owings_v._Speed,_18_US_420.html'
p1111
(dp1112
g3
(lp1113
g5
(S'\x07\x1c\x03\x10\x00\x00\x00\x00\x00\x00'
p1114
tp1115
Rp1116
assS'/sata/lawbox/dump/gov.us.courts.united_states_reports/1st/2/United_States_v._Ravara,_2_US_297.html'
p1117
(dp1118
g3
(lp1119
g5
(S'\x07\x01\x04\x01\x00\x00\x00\x00\x00\x00'
p1120
tp1121
Rp1122
assS'/sata/lawbox/dump/gov.us.courts.united_states_reports/1st/16/Shepherd_v._Hampton,_16_US_200.html'
p1123
(dp1124
g3
(lp1125
g5
(S'\x07\x1a\x02\x13\x00\x00\x00\x00\x00\x00'
p1126
tp1127
Rp1128
assS'/sata/lawbox/dump/gov.us.courts.united_states_reports/1st/4/Sharp_v._Pettit,_4_US_212.html'
p1129
(dp1130
g3
(lp1131
g5
(S'\x07\x08\t\x01\x00\x00\x00\x00\x00\x00'
p1132
tp1133
Rp1134
assS'/sata/lawbox/dump/gov.us.courts.united_states_reports/1st/162/OREGON_SHORT_LINE_AND_UTAH_NORTHERN_RY._CO._v._Mullan,_162_US_498.html'
p1135
(dp1136
g3
(lp1137
g5
(S'\x07h\x04\x14\x00\x00\x00\x00\x00\x00'
p1138
tp1139
Rp1140
assS"/sata/lawbox/dump/gov.us.courts.united_states_reports/1st/4/Humphries_v._Blight's_Assignees,_4_US_370.html"
p1141
(dp1142
g3
(lp1143
g5
(S'\x07\x0b\x04\x01\x00\x00\x00\x00\x00\x00'
p1144
tp1145
Rp1146
ass.